(lp0
(lp1
I0
aI7
aI9
aI10
aI12
aI14
aI21
aI23
aI25
aI26
aI28
aa(lp2
I0
aI3
aI4
aI7
aI9
aI10
aI13
aI14
aI16
aI21
aI23
aI25
aI26
aI28
aa(lp3
I0
aI3
aI4
aI7
aI9
aI23
aI25
aI26
aa(lp4
I0
aI3
aI4
aI7
aI9
aI10
aI13
aI14
aI16
aI21
aI23
aI25
aI26
aI28
aa(lp5
I1
aI2
aI5
aI7
aI8
aI11
aI13
aI15
aI17
aI21
aI22
aI24
aI27
aI29
aa(lp6
I1
aI2
aI5
aI6
aI8
aI13
aI17
aI21
aI22
aI24
aI27
aI29
aa(lp7
I0
aI3
aI4
aI7
aI9
aI23
aI25
aI26
aa(lp8
I1
aI2
aI5
aI6
aI8
aI11
aI13
aI15
aI17
aI21
aI22
aI24
aI27
aI29
aa(lp9
I1
aI2
aI5
aI7
aI8
aI11
aI13
aI15
aI17
aI21
aI22
aI24
aI27
aI29
aa(lp10
I1
aI2
aI4
aI6
aI8
aI11
aI13
aI15
aI17
aI21
aI22
aI25
aI26
aI29
aa(lp11
I0
aI3
aI4
aI7
aI9
aI10
aI13
aI15
aI17
aI21
aI23
aI25
aI26
aI28
aa(lp12
I1
aI11
aI15
aI17
aI20
aa(lp13
I0
aI3
aI4
aI7
aI9
aI23
aI25
aI26
aa(lp14
I0
aI3
aI4
aI7
aI9
aI11
aI12
aI14
aI16
aI21
aI23
aI25
aI26
aI28
aa(lp15
I1
aI11
aI13
aI15
aI17
aI21
aI29
aa(lp16
I0
aI3
aI4
aI9
aI10
aI12
aI14
aI16
aI23
aI25
aI26
aI28
aa(lp17
I1
aI2
aI4
aI6
aI8
aI11
aI13
aI15
aI17
aI21
aI22
aI24
aI27
aI29
aa(lp18
I0
aa(lp19
I1
aI11
aI13
aI15
aI16
aI21
aI28
aa(lp20
I0
aI3
aI4
aI6
aI9
aI13
aI14
aI17
aI21
aI23
aI25
aI26
aI28
aa(lp21
I0
aI7
aI9
aI10
aI12
aI14
aI16
aI21
aI23
aI25
aI26
aI28
aa(lp22
I2
aI5
aI6
aI8
aI11
aI13
aI15
aI17
aI20
aI22
aI24
aI27
aI29
aa(lp23
I0
aI3
aI4
aI7
aI9
aI10
aI13
aI14
aI16
aI21
aI23
aI25
aI27
aI28
aa(lp24
I1
aI2
aI5
aI6
aI8
aI11
aI13
aI15
aI17
aI21
aI22
aI24
aI27
aI29
aa(lp25
I0
aI3
aI4
aI7
aI9
aI10
aI12
aI14
aI16
aI21
aI23
aI25
aI26
aI28
aa(lp26
I0
aI3
aI4
aI7
aI9
aI10
aI12
aI14
aI16
aI21
aI23
aI25
aI26
aI28
aa(lp27
I1
aI11
aI13
aI15
aI17
aI21
aI28
aa(lp28
I1
aI2
aI5
aI6
aI8
aI11
aI13
aI15
aI17
aI21
aI22
aI24
aI27
aI29
aa(lp29
I1
aI2
aI4
aI6
aI8
aI11
aI13
aI15
aI17
aI21
aI22
aI24
aI26
aI29
aa(lp30
I0
aa(lp31
I1
aI2
aI4
aI6
aI8
aI11
aI13
aI15
aI17
aI21
aI22
aI24
aI27
aI29
aa(lp32
I1
aI2
aI4
aI6
aI8
aI11
aI13
aI14
aI17
aI21
aI23
aI25
aI26
aI29
aa(lp33
I1
aI2
aI4
aI6
aI8
aI11
aI13
aI15
aI17
aI21
aI22
aI24
aI27
aI29
aa(lp34
I1
aI2
aI5
aI6
aI8
aI13
aI15
aI17
aI21
aI22
aI24
aI27
aI29
aa(lp35
I1
aI11
aI13
aI15
aI17
aI21
aI29
aa(lp36
I1
aI11
aI13
aI15
aI17
aI21
aI29
aa(lp37
I0
aI3
aI4
aI7
aI9
aI23
aI25
aI27
aa(lp38
I1
aI2
aI5
aI6
aI8
aI11
aI13
aI15
aI17
aI21
aI22
aI24
aI27
aI29
aa(lp39
I0
aI3
aI4
aI7
aI9
aI10
aI12
aI14
aI16
aI21
aI23
aI25
aI26
aI28
aa(lp40
I0
aI10
aI13
aI14
aI16
aI21
aa(lp41
I0
aI2
aI4
aI7
aI9
aI22
aI25
aI26
aa(lp42
I0
aI3
aI4
aI7
aI9
aI10
aI13
aI14
aI17
aI21
aI23
aI24
aI26
aI28
aa(lp43
I0
aI3
aI4
aI7
aI9
aI10
aI12
aI14
aI16
aI21
aI23
aI25
aI27
aa(lp44
I1
aI2
aI4
aI6
aI8
aI22
aI25
aI26
aa(lp45
I1
aI11
aI13
aI15
aI17
aI21
aI28
aa(lp46
I1
aI2
aI5
aI6
aI8
aI11
aI13
aI15
aI17
aI21
aI22
aI24
aI27
aI29
aa(lp47
I0
aI3
aI4
aI7
aI9
aI23
aI25
aI26
aa(lp48
I1
aI2
aI4
aI7
aI8
aI11
aI13
aI15
aI17
aI21
aI22
aI25
aI27
aI28
aa(lp49
I1
aI15
aa(lp50
I0
aI3
aI4
aI7
aI9
aI10
aI13
aI14
aI17
aI21
aI23
aI25
aI26
aI28
aa(lp51
I1
aI2
aI5
aI6
aI8
aI11
aI13
aI15
aI17
aI21
aI22
aI24
aI27
aI29
aa(lp52
I0
aI3
aI4
aI7
aI9
aI10
aI12
aI14
aI16
aI21
aI23
aI24
aI26
aa(lp53
I1
aI2
aI5
aI6
aI8
aI11
aI13
aI15
aI17
aI21
aI22
aI24
aI27
aI29
aa(lp54
I1
aI2
aI6
aI8
aI11
aI13
aI15
aI17
aI21
aI22
aI25
aI26
aI29
aa(lp55
I0
aI3
aI4
aI7
aI9
aI10
aI12
aI14
aI16
aI21
aI23
aI24
aI26
aI28
aa(lp56
I1
aI2
aI4
aI6
aI8
aI11
aI13
aI15
aI17
aI21
aI22
aI24
aI27
aI29
aa(lp57
I0
aI3
aI4
aI7
aI9
aI10
aI12
aI14
aI16
aI21
aI23
aI25
aI26
aI28
aa(lp58
I0
aI3
aI4
aI7
aI9
aI10
aI13
aI14
aI16
aI21
aI23
aI25
aI26
aI28
aa(lp59
I0
aI3
aI4
aI7
aI9
aI10
aI12
aI14
aI16
aI21
aI25
aI26
aI28
aa(lp60
I1
aI2
aI5
aI6
aI8
aI11
aI13
aI15
aI17
aI21
aI22
aI24
aI27
aI29
aa(lp61
I0
aI3
aI4
aI7
aI9
aI10
aI12
aI14
aI16
aI21
aI23
aI25
aI26
aI28
aa(lp62
I0
aa(lp63
I0
aI3
aI4
aI7
aI9
aI22
aI25
aI26
aa(lp64
I1
aI2
aI4
aI6
aI8
aI11
aI13
aI15
aI17
aI21
aI22
aI24
aI26
aI29
aa(lp65
I0
aI3
aI4
aI7
aI9
aI23
aI25
aI26
aa(lp66
I0
aI3
aI4
aI7
aI9
aI23
aI25
aI27
aa(lp67
I1
aI2
aI4
aI6
aI8
aI11
aI13
aI15
aI17
aI21
aI22
aI24
aI27
aI29
aa(lp68
I1
aI6
aI8
aI11
aI13
aI15
aI17
aI21
aI24
aI27
aI29
aa(lp69
I0
aI3
aI4
aI7
aI9
aI10
aI12
aI14
aI16
aI21
aI23
aI24
aI26
aI28
aa(lp70
I0
aI3
aI4
aI7
aI9
aI10
aI14
aI17
aI21
aI23
aI25
aI26
aI28
aa(lp71
I1
aI2
aI4
aI6
aI8
aI11
aI13
aI15
aI17
aI21
aI22
aI24
aI26
aI29
aa(lp72
I1
aI2
aI5
aI6
aI8
aI11
aI13
aI15
aI17
aI21
aI22
aI24
aI27
aI29
aa(lp73
I1
aI2
aI4
aI6
aI8
aI11
aI13
aI15
aI17
aI21
aI22
aI24
aI27
aI29
aa(lp74
I1
aI11
aI13
aI15
aI17
aI21
aa(lp75
I1
aI2
aI5
aI6
aI8
aI11
aI13
aI15
aI17
aI21
aI22
aI24
aI27
aI29
aa(lp76
I1
aI2
aI5
aI6
aI8
aI11
aI13
aI15
aI17
aI21
aI22
aI24
aI27
aI29
aa(lp77
I0
aI3
aI4
aI7
aI9
aI10
aI12
aI14
aI16
aI21
aI23
aI25
aI26
aI28
aa(lp78
I0
aI3
aI4
aI7
aI9
aI10
aI12
aI14
aI16
aI21
aI23
aI25
aI26
aI28
aa(lp79
I1
aI2
aI5
aI6
aI8
aI22
aI24
aI26
aa(lp80
I0
aI3
aI4
aI7
aI9
aI10
aI12
aI14
aI16
aI21
aI23
aI25
aI26
aI28
aa(lp81
I1
aI2
aI4
aI7
aI8
aI11
aI13
aI15
aI17
aI21
aI22
aI24
aI26
aI28
aa(lp82
I1
aI2
aI4
aI6
aI8
aI22
aI25
aI27
aa(lp83
I1
aI2
aI5
aI6
aI8
aI11
aI13
aI15
aI17
aI21
aI22
aI24
aI27
aI29
aa(lp84
I0
aa(lp85
I1
aI11
aI13
aI14
aI17
aI21
aI29
aa(lp86
I0
aI3
aI4
aI7
aI9
aI23
aI25
aI26
aa(lp87
I1
aI11
aI13
aI15
aI16
aI21
aa(lp88
I0
aI3
aI4
aI7
aI9
aI10
aI12
aI14
aI16
aI21
aI23
aI25
aI26
aI28
aa(lp89
I1
aI2
aI5
aI6
aI8
aI11
aI13
aI15
aI17
aI21
aI22
aI25
aI27
aI29
aa(lp90
I1
aI2
aI5
aI7
aI8
aI11
aI13
aI15
aI17
aI21
aI22
aI24
aI26
aI29
aa(lp91
I1
aI2
aI4
aI6
aI8
aI11
aI13
aI15
aI17
aI21
aI22
aI25
aI27
aI29
aa(lp92
I0
aI3
aI4
aI9
aI10
aI13
aI14
aI16
aI21
aI22
aI25
aI26
aI28
aa(lp93
I0
aI3
aI4
aI7
aI9
aI10
aI12
aI14
aI16
aI21
aI23
aI25
aI26
aI28
aa(lp94
I1
aI11
aI13
aI15
aI17
aI21
aI29
aa(lp95
I0
aI3
aI4
aI7
aI9
aI10
aI13
aI14
aI16
aI21
aI23
aI25
aI26
aI28
aa(lp96
I0
aI3
aI4
aI7
aI9
aI10
aI12
aI14
aI16
aI21
aI23
aI25
aI26
aI28
aa(lp97
I1
aI2
aI5
aI6
aI8
aI11
aI13
aI15
aI17
aI20
aI22
aI24
aI27
aI29
aa(lp98
I1
aI11
aI13
aI15
aI17
aI21
aI29
aa(lp99
I0
aI3
aI4
aI7
aI9
aI23
aI25
aI26
aa(lp100
I0
aI3
aI4
aI7
aI9
aI23
aI25
aI26
aa(lp101
I1
aI2
aI4
aI6
aI8
aI11
aI13
aI15
aI17
aI21
aI22
aI25
aI27
aI28
aa(lp102
I0
aI3
aI4
aI7
aI9
aI23
aI25
aI26
aa(lp103
I1
aI2
aI4
aI6
aI8
aI11
aI13
aI15
aI17
aI21
aI22
aI24
aI27
aI28
aa(lp104
I0
aI3
aI4
aI7
aI9
aI10
aI12
aI14
aI16
aI21
aI23
aI25
aI27
aI28
aa(lp105
I1
aI2
aI4
aI6
aI8
aI11
aI13
aI15
aI17
aI21
aI22
aI24
aI26
aI29
aa(lp106
I0
aI3
aI4
aI7
aI9
aI23
aI25
aI26
aa(lp107
I0
aI3
aI4
aI7
aI9
aI10
aI13
aI14
aI16
aI21
aI23
aI25
aI26
aI28
aa(lp108
I1
aI11
aI13
aI15
aI17
aI21
aI29
aa(lp109
I1
aI2
aI4
aI6
aI8
aI11
aI13
aI15
aI17
aI21
aI22
aI24
aI27
aI29
aa(lp110
I0
aI3
aI4
aI6
aI9
aI23
aI25
aI26
aa(lp111
I1
aa(lp112
I0
aI3
aI4
aI7
aI9
aI10
aI13
aI14
aI17
aI21
aI23
aI25
aI26
aa(lp113
I1
aI2
aI5
aI6
aI8
aI11
aI13
aI15
aI17
aI21
aI22
aI24
aI27
aI29
aa(lp114
I2
aI4
aI6
aI8
aI11
aI13
aI15
aI17
aI21
aI22
aI25
aI26
aI29
aa(lp115
I0
aI3
aI4
aI7
aI9
aI23
aI25
aI26
aa(lp116
I0
aa(lp117
I0
aI3
aI4
aI7
aI9
aI10
aI13
aI14
aI16
aI21
aI23
aI25
aI26
aI28
aa(lp118
I1
aI2
aI4
aI6
aI8
aI11
aI13
aI15
aI17
aI21
aI22
aI24
aI26
aI28
aa(lp119
I0
aI3
aI4
aI7
aI9
aI13
aI16
aI21
aI23
aI25
aI26
aI28
aa(lp120
I1
aI2
aI5
aI6
aI8
aI11
aI13
aI15
aI17
aI21
aI22
aI24
aI27
aI29
aa(lp121
I1
aI2
aI4
aI6
aI8
aI11
aI13
aI15
aI17
aI21
aI22
aI24
aI26
aI29
aa(lp122
I0
aI3
aI4
aI7
aI9
aI23
aI25
aI26
aa(lp123
I0
aI3
aI4
aI7
aI9
aI10
aI12
aI14
aI16
aI21
aI23
aI25
aI26
aI28
aa(lp124
I1
aI11
aI13
aI14
aI17
aI21
aI28
aa(lp125
I0
aI3
aI4
aI7
aI9
aI10
aI12
aI14
aI21
aI23
aI25
aI26
aI28
aa(lp126
I0
aI2
aI4
aI7
aI9
aI23
aI25
aI26
aa(lp127
I1
aI2
aI5
aI6
aI8
aI11
aI13
aI15
aI17
aI21
aI22
aI24
aI26
aI29
aa(lp128
I1
aI2
aI5
aI6
aI8
aI11
aI13
aI15
aI17
aI21
aI22
aI24
aI27
aI29
aa(lp129
I0
aI3
aI7
aI9
aI10
aI12
aI14
aI16
aI21
aI23
aI25
aI26
aI28
aa(lp130
I0
aa(lp131
I1
aI2
aI5
aI6
aI8
aI11
aI13
aI15
aI17
aI21
aI22
aI24
aI27
aI29
aa(lp132
I1
aI2
aI5
aI6
aI8
aI11
aI13
aI15
aI17
aI21
aI22
aI24
aI26
aI29
aa(lp133
I0
aI3
aI4
aI7
aI9
aI10
aI13
aI14
aI16
aI21
aI23
aI25
aI26
aI28
aa(lp134
I0
aI3
aI4
aI7
aI9
aI10
aI14
aI16
aI21
aI23
aI25
aI26
aI28
aa(lp135
I0
aI3
aI4
aI7
aI9
aI23
aI25
aI26
aa(lp136
I0
aI3
aI4
aI7
aI9
aI25
aa(lp137
I0
aI3
aI4
aI7
aI9
aI10
aI12
aI14
aI16
aI21
aI23
aI25
aI27
aI28
aa(lp138
I1
aI2
aI4
aI6
aI8
aI11
aI13
aI15
aI17
aI21
aI22
aI24
aI27
aI29
aa(lp139
I0
aI3
aI5
aI7
aI9
aI10
aI12
aI15
aI16
aI21
aI23
aI25
aI27
aI28
aa(lp140
I1
aI2
aI5
aI6
aI8
aI11
aI13
aI15
aI17
aI21
aI22
aI24
aI26
aI29
aa(lp141
I0
aI10
aI14
aI16
aI21
aI28
aa(lp142
I1
aI11
aI15
aI17
aI21
aI29
aa(lp143
I0
aI3
aI4
aI7
aI9
aI10
aI12
aI14
aI16
aI21
aI23
aI25
aI26
aI28
aa(lp144
I0
aI3
aI4
aI7
aI9
aI10
aI13
aI14
aI17
aI21
aI23
aI25
aI26
aI28
aa(lp145
I1
aI2
aI4
aI6
aI8
aI11
aI13
aI15
aI17
aI21
aI22
aI25
aI27
aI29
aa(lp146
I0
aI3
aI4
aI7
aI9
aI10
aI13
aI14
aI16
aI21
aI23
aI25
aI26
aI28
aa(lp147
I0
aI3
aI5
aI7
aI9
aI10
aI12
aI14
aI16
aI21
aI23
aI25
aI26
aI28
aa(lp148
I1
aI2
aI4
aI6
aI8
aI11
aI13
aI15
aI17
aI21
aI22
aI24
aI26
aI29
aa(lp149
I0
aI3
aI4
aI7
aI9
aI23
aI25
aI26
aa(lp150
I0
aI3
aI4
aI7
aI9
aI23
aI25
aI26
aa(lp151
I0
aI3
aI4
aI7
aI9
aI23
aI25
aI27
aa(lp152
I0
aI3
aI4
aI7
aI9
aI23
aI25
aI26
aa(lp153
I1
aI2
aI5
aI6
aI8
aI11
aI13
aI15
aI17
aI21
aI22
aI25
aI26
aI29
aa(lp154
I0
aI3
aI4
aI7
aI9
aI10
aI12
aI14
aI16
aI21
aI23
aI25
aI26
aI28
aa(lp155
I0
aI3
aI4
aI7
aI9
aI23
aI25
aI26
aa(lp156
I1
aI11
aI13
aI15
aI17
aI21
aI29
aa(lp157
I0
aI3
aI4
aI7
aI9
aI23
aI25
aI26
aa(lp158
I0
aI7
aI9
aI23
aI25
aI26
aa(lp159
I1
aI2
aI4
aI6
aI8
aI11
aI13
aI15
aI17
aI21
aI22
aI25
aI27
aI29
aa(lp160
I1
aI11
aI13
aI15
aI17
aI21
aI29
aa(lp161
I0
aI3
aI4
aI7
aI9
aI23
aI25
aI26
aa(lp162
I0
aI10
aI13
aI14
aI17
aI21
aI28
aa(lp163
I1
aI11
aI13
aI14
aI16
aa(lp164
I0
aI3
aI4
aI7
aI9
aI10
aI13
aI14
aI16
aI21
aI23
aI25
aI26
aI28
aa(lp165
I1
aI2
aI4
aI6
aI8
aI11
aI13
aI15
aI17
aI21
aI22
aI24
aI26
aI29
aa(lp166
I1
aI2
aI4
aI7
aI9
aI13
aI17
aI21
aI23
aI25
aI26
aI28
aa(lp167
I0
aI3
aI4
aI7
aI9
aI23
aI25
aI26
aa(lp168
I0
aI3
aI4
aI7
aI9
aI10
aI12
aI14
aI16
aI21
aI23
aI25
aI26
aI28
aa(lp169
I1
aI2
aI5
aI6
aI8
aI11
aI13
aI15
aI17
aI20
aI22
aI24
aI26
aI29
aa(lp170
I1
aI2
aI5
aI6
aI8
aI22
aI24
aI27
aa(lp171
I0
aI3
aI4
aI7
aI9
aI10
aI13
aI14
aI17
aI21
aI23
aI25
aI26
aI28
aa(lp172
I0
aI3
aI4
aI7
aI9
aI10
aI12
aI14
aI16
aI21
aI23
aI25
aI26
aI28
aa(lp173
I0
aI3
aI4
aI7
aI9
aI23
aI25
aI26
aa(lp174
I0
aI3
aI4
aI7
aI9
aI23
aI25
aI26
aa(lp175
I0
aI3
aI4
aI7
aI9
aI10
aI12
aI14
aI16
aI21
aI23
aI25
aI26
aI28
aa(lp176
I1
aI2
aI4
aI6
aI8
aI11
aI13
aI15
aI17
aI21
aI22
aI24
aI26
aI29
aa(lp177
I1
aI2
aI5
aI6
aI8
aI11
aI13
aI15
aI17
aI21
aI22
aI24
aI27
aI29
aa(lp178
I0
aI3
aI4
aI7
aI9
aI10
aI12
aI14
aI16
aI21
aI23
aI25
aI26
aI28
aa(lp179
I1
aI2
aI5
aI6
aI8
aI11
aI13
aI14
aI17
aI21
aI23
aI25
aI27
aI29
aa(lp180
I1
aI2
aI5
aI6
aI8
aI11
aI13
aI15
aI17
aI21
aI22
aI24
aI27
aI29
aa(lp181
I1
aI2
aI4
aI6
aI8
aI11
aI13
aI15
aI17
aI21
aI22
aI24
aI27
aI29
aa(lp182
I1
aI11
aI13
aI15
aI17
aI21
aI29
aa(lp183
I0
aI3
aI4
aI7
aI9
aI23
aI25
aI26
aa(lp184
I0
aa(lp185
I1
aI2
aI5
aI6
aI8
aI11
aI13
aI15
aI17
aI20
aI22
aI24
aI26
aI29
aa(lp186
I0
aI3
aI4
aI7
aI9
aI10
aI13
aI14
aI16
aI21
aI23
aI25
aI26
aI28
aa(lp187
I1
aI11
aI13
aI14
aI17
aI21
aI28
aa(lp188
I1
aI11
aI14
aI17
aI21
aI28
aa(lp189
I1
aI2
aI5
aI6
aI8
aI11
aI13
aI15
aI17
aI21
aI22
aI24
aI27
aI29
aa(lp190
I1
aI2
aI5
aI6
aI8
aI11
aI13
aI15
aI17
aI21
aI22
aI24
aI26
aI29
aa(lp191
I0
aa(lp192
I0
aI11
aI13
aI14
aI16
aI21
aa(lp193
I0
aI3
aI4
aI7
aI9
aI10
aI13
aI14
aI16
aI21
aI23
aI25
aI27
aI28
aa(lp194
I1
aI2
aI5
aI6
aI8
aI11
aI13
aI15
aI17
aI21
aI22
aI24
aI27
aI29
aa(lp195
I1
aI11
aI13
aI15
aI17
aI21
aI29
aa(lp196
I2
aI4
aI7
aI8
aI11
aI13
aI14
aI17
aI21
aI23
aI25
aI26
aI28
aa(lp197
I0
aI3
aI4
aI7
aI9
aI10
aI14
aI16
aI21
aI23
aI25
aI26
aI28
aa(lp198
I0
aI3
aI7
aI9
aI22
aI25
aI26
aa(lp199
I1
aI8
aI11
aI13
aI15
aI17
aI22
aI24
aI27
aI29
aa(lp200
I1
aI15
aa(lp201
I1
aI2
aI4
aI6
aI8
aI11
aI13
aI15
aI17
aI21
aI22
aI24
aI26
aI29
aa(lp202
I1
aI2
aI4
aI6
aI8
aI11
aI13
aI15
aI17
aI21
aI22
aI24
aI27
aI29
aa(lp203
I1
aI2
aI4
aI6
aI8
aI11
aI13
aI15
aI17
aI21
aI22
aI24
aI27
aI29
aa(lp204
I0
aI10
aI14
aI16
aI21
aI28
aa(lp205
I1
aI2
aI4
aI6
aI8
aI11
aI13
aI15
aI17
aI21
aI22
aI25
aI27
aI29
aa(lp206
I1
aI13
aI15
aI17
aI21
aI29
aa(lp207
I0
aI3
aI4
aI7
aI9
aI23
aI25
aI26
aa(lp208
I1
aI2
aI5
aI6
aI8
aI11
aI13
aI15
aI17
aI21
aI22
aI24
aI27
aI29
aa(lp209
I1
aI11
aI13
aI14
aI17
aI21
aI29
aa(lp210
I1
aI2
aI5
aI6
aI8
aI11
aI13
aI15
aI20
aI22
aI24
aI27
aI29
aa(lp211
I0
aI3
aI4
aI7
aI9
aI23
aI25
aI26
aa(lp212
I0
aI3
aI4
aI7
aI9
aI23
aI24
aI26
aa(lp213
I1
aI2
aI4
aI6
aI8
aI11
aI13
aI15
aI17
aI22
aI24
aI27
aa(lp214
I0
aI3
aI4
aI7
aI9
aI10
aI12
aI14
aI16
aI21
aI23
aI25
aI26
aI28
aa(lp215
I0
aI2
aI4
aI7
aI9
aI23
aI25
aI26
aa(lp216
I0
aI3
aI4
aI7
aI9
aI23
aI25
aI26
aa(lp217
I0
aI14
aI21
aa(lp218
I0
aI3
aI4
aI7
aI9
aI23
aI25
aI26
aa(lp219
I1
aI2
aI4
aI6
aI8
aI22
aI24
aI27
aa(lp220
I1
aI2
aI4
aI6
aI8
aI11
aI13
aI15
aI17
aI20
aI22
aI24
aI26
aI29
aa(lp221
I0
aI3
aI4
aI7
aI9
aI23
aI25
aI26
aa(lp222
I1
aI6
aI8
aI11
aI13
aI15
aI17
aI21
aI22
aI24
aI27
aa(lp223
I0
aI3
aI4
aI7
aI9
aI10
aI12
aI14
aI16
aI21
aI23
aI25
aI26
aI28
aa(lp224
I0
aI2
aI4
aI7
aI9
aI10
aI13
aI14
aI17
aI21
aI23
aI24
aI26
aI28
aa(lp225
I0
aI3
aI4
aI7
aI9
aI11
aI13
aI14
aI16
aI21
aI23
aI25
aI26
aI28
aa(lp226
I1
aI11
aI13
aI15
aI17
aI21
aI29
aa(lp227
I1
aI2
aI5
aI6
aI8
aI22
aI24
aI27
aa(lp228
I0
aa(lp229
I0
aI10
aI14
aa(lp230
I0
aI3
aI4
aI7
aI9
aI10
aI13
aI14
aI16
aI21
aI23
aI25
aI26
aI28
aa(lp231
I1
aI2
aI5
aI6
aI8
aI11
aI13
aI15
aI17
aI21
aI22
aI24
aI27
aI29
aa(lp232
I0
aa(lp233
I1
aI2
aI4
aI6
aI8
aI11
aI13
aI15
aI17
aI21
aI22
aI25
aI26
aI29
aa(lp234
I1
aI11
aI12
aI14
aI16
aI21
aI28
aa(lp235
I0
aI3
aI4
aI7
aI9
aI23
aI25
aI26
aa(lp236
I1
aI11
aI13
aI15
aI17
aI21
aI29
aa(lp237
I1
aI2
aI4
aI6
aI8
aI11
aI13
aI15
aI17
aI21
aI22
aI24
aI27
aI29
aa(lp238
I1
aI2
aI4
aI6
aI8
aI11
aI13
aI15
aI17
aI21
aI22
aI24
aI26
aI29
aa(lp239
I1
aI15
aa(lp240
I0
aI3
aI4
aI7
aI9
aI10
aI13
aI14
aI16
aI21
aI23
aI25
aI26
aI28
aa(lp241
I0
aI3
aI4
aI7
aI9
aI10
aI12
aI14
aI16
aI21
aI23
aI24
aI27
aI28
aa(lp242
I0
aI3
aI4
aI7
aI9
aI23
aI25
aI26
aa(lp243
I1
aI2
aI4
aI6
aI8
aI11
aI13
aI14
aI17
aI21
aI22
aI25
aI26
aI29
aa(lp244
I0
aI3
aI7
aI9
aI10
aI14
aI16
aI21
aI23
aI25
aI26
aa(lp245
I0
aI3
aI5
aI7
aI9
aI11
aI13
aI14
aI17
aI21
aI23
aI25
aI26
aI28
aa(lp246
I0
aI3
aI4
aI7
aI9
aI11
aI13
aI14
aI17
aI21
aI22
aI25
aI26
aI28
aa(lp247
I0
aI3
aI4
aI7
aI9
aI10
aI13
aI14
aI17
aI21
aI23
aI25
aI26
aI28
aa(lp248
I0
aI3
aI4
aI7
aI9
aI23
aI25
aI26
aa(lp249
I1
aI2
aI5
aI6
aI8
aI11
aI13
aI15
aI17
aI21
aI22
aI24
aI26
aI29
aa(lp250
I0
aI3
aI4
aI7
aI9
aI23
aI25
aI26
aa(lp251
I0
aI3
aI4
aI7
aI9
aI23
aI25
aI26
aa(lp252
I1
aI11
aI13
aI15
aI17
aI21
aI29
aa(lp253
I1
aI11
aI13
aI14
aI17
aI21
aI29
aa(lp254
I0
aI11
aI14
aI28
aa(lp255
I0
aI3
aI4
aI7
aI9
aI10
aI12
aI14
aI16
aI21
aI23
aI25
aI27
aI28
aa(lp256
I1
aI6
aI8
aI11
aI13
aI15
aI17
aI21
aI22
aI25
aI26
aI29
aa(lp257
I1
aI2
aI4
aI6
aI8
aI11
aI13
aI15
aI17
aI21
aI22
aI24
aI27
aI29
aa(lp258
I0
aI3
aI4
aI7
aI9
aI10
aI12
aI14
aI16
aI21
aI23
aI25
aI26
aI28
aa(lp259
I0
aI10
aI13
aI14
aI16
aI21
aI28
aa(lp260
I1
aI11
aI13
aI15
aI17
aI21
aI28
aa(lp261
I1
aI15
aa(lp262
I1
aI2
aI4
aI7
aI8
aI11
aI13
aI15
aI17
aI21
aI22
aI25
aI26
aI29
aa(lp263
I1
aI2
aI4
aI6
aI8
aI11
aI13
aI15
aI17
aI21
aI22
aI25
aI27
aI29
aa(lp264
I1
aI2
aI5
aI8
aI11
aI13
aI15
aI17
aI20
aI22
aI24
aI27
aI29
aa(lp265
I1
aI2
aI4
aI6
aI8
aI11
aI13
aI15
aI17
aI21
aI22
aI24
aI27
aI29
aa(lp266
I1
aI11
aI13
aI15
aI17
aI21
aI29
aa(lp267
I1
aa(lp268
I0
aI3
aI4
aI7
aI9
aI10
aI12
aI14
aI17
aI21
aI23
aI25
aI26
aI28
aa(lp269
I1
aI2
aI5
aI6
aI8
aI11
aI13
aI15
aI17
aI21
aI22
aI24
aI27
aI29
aa(lp270
I0
aI3
aI4
aI7
aI9
aI10
aI13
aI14
aI16
aI21
aI23
aI25
aI26
aI28
aa(lp271
I0
aI10
aI12
aI14
aI16
aI28
aa(lp272
I0
aI3
aI4
aI7
aI9
aI10
aI13
aI14
aI16
aI21
aI23
aI26
aI28
aa(lp273
I0
aI3
aI4
aI7
aI9
aI11
aI13
aI14
aI17
aI21
aI23
aI25
aI26
aI28
aa(lp274
I1
aI2
aI4
aI6
aI8
aI11
aI13
aI15
aI17
aI20
aI22
aI24
aI27
aI29
aa(lp275
I1
aI2
aI5
aI6
aI8
aI13
aI14
aI16
aI21
aI23
aI25
aI26
aI29
aa(lp276
I0
aI3
aI4
aI7
aI9
aI23
aI25
aI26
aa(lp277
I1
aI2
aI4
aI6
aI8
aI11
aI13
aI15
aI17
aI21
aI22
aI24
aI26
aI29
aa(lp278
I0
aI3
aI4
aI7
aI9
aI10
aI13
aI14
aI17
aI21
aI23
aI25
aI26
aI28
aa(lp279
I1
aI2
aI5
aI6
aI8
aI11
aI13
aI15
aI17
aI21
aI22
aI25
aI26
aI29
aa(lp280
I0
aI3
aI4
aI7
aI9
aI10
aI12
aI14
aI16
aI21
aI23
aI25
aI26
aI28
aa(lp281
I1
aI2
aI5
aI6
aI8
aI24
aI27
aa(lp282
I0
aI3
aI4
aI7
aI9
aI23
aI25
aI27
aa(lp283
I1
aI11
aI13
aI15
aI17
aI21
aI29
aa(lp284
I0
aI3
aI4
aI7
aI9
aI23
aI25
aI26
aa(lp285
I0
aI3
aI4
aI7
aI9
aI11
aI13
aI14
aI21
aI23
aI25
aI26
aI28
aa(lp286
I0
aI3
aI4
aI7
aI9
aI10
aI12
aI14
aI16
aI21
aI23
aI25
aI26
aI28
aa(lp287
I1
aI2
aI4
aI7
aI8
aI11
aI13
aI15
aI17
aI21
aI22
aI25
aI26
aI29
aa(lp288
I0
aI3
aI4
aI7
aI9
aI23
aI25
aI26
aa(lp289
I1
aI2
aI4
aI6
aI8
aI11
aI13
aI15
aI17
aI21
aI22
aI25
aI27
aI28
aa(lp290
I0
aI3
aI4
aI7
aI9
aI23
aI25
aI26
aa(lp291
I0
aI3
aI4
aI7
aI9
aI10
aI12
aI14
aI16
aI21
aI23
aI25
aI27
aI28
aa(lp292
I1
aI2
aI4
aI7
aI8
aI11
aI13
aI15
aI16
aI21
aI22
aI25
aI26
aI29
aa(lp293
I0
aI3
aI7
aI9
aI10
aI12
aI14
aI16
aI21
aI23
aI25
aI26
aI28
aa(lp294
I0
aI3
aI4
aI7
aI9
aI10
aI12
aI14
aI16
aI23
aI25
aI26
aI28
aa(lp295
I1
aI2
aI4
aI7
aI8
aI11
aI13
aI15
aI17
aI21
aI22
aI25
aI26
aI28
aa(lp296
I1
aI11
aI13
aI14
aI17
aI21
aI28
aa(lp297
I1
aI2
aI4
aI6
aI8
aI11
aI13
aI15
aI17
aI21
aI22
aI24
aI27
aI29
aa(lp298
I1
aI11
aI13
aI15
aI17
aI21
aI29
aa(lp299
I0
aI3
aI4
aI7
aI9
aI23
aI25
aI26
aa(lp300
I1
aI11
aI13
aI15
aI17
aI21
aI29
aa(lp301
I0
aI3
aI4
aI7
aI9
aI12
aI16
aI21
aI23
aI25
aI27
aI28
aa(lp302
I0
aI3
aI5
aI7
aI9
aI13
aI14
aI17
aI21
aI23
aI25
aI27
aI29
aa(lp303
I0
aI10
aI14
aI16
aI21
aa(lp304
I0
aI3
aI4
aI7
aI9
aI23
aI25
aI26
aa(lp305
I1
aI2
aI5
aI6
aI8
aI11
aI13
aI15
aI17
aI21
aI22
aI24
aI27
aI29
aa(lp306
I1
aI2
aI5
aI6
aI8
aI11
aI13
aI15
aI17
aI21
aI22
aI24
aI26
aI29
aa(lp307
I1
aI11
aI13
aI15
aI17
aI21
aI28
aa(lp308
I1
aI11
aI13
aI15
aI17
aI21
aI29
aa(lp309
I0
aI3
aI4
aI7
aI9
aI10
aI12
aI14
aI16
aI21
aI23
aI25
aI26
aI28
aa(lp310
I1
aI2
aI4
aI6
aI8
aI11
aI13
aI15
aI17
aI21
aI22
aI24
aI27
aI29
aa(lp311
I0
aI11
aI13
aI14
aI17
aI21
aI28
aa(lp312
I1
aI2
aI4
aI6
aI8
aI11
aI13
aI15
aI17
aI21
aI22
aI24
aI27
aI29
aa(lp313
I1
aI2
aI4
aI7
aI8
aI11
aI13
aI15
aI17
aI21
aI22
aI25
aI27
aI29
aa(lp314
I1
aI11
aI13
aI15
aI17
aI21
aI29
aa(lp315
I1
aI2
aI4
aI6
aI8
aI11
aI13
aI15
aI17
aI21
aI22
aI24
aI26
aI29
aa(lp316
I1
aI11
aI13
aI15
aI17
aI21
aI29
aa(lp317
I0
aI3
aI4
aI7
aI9
aI10
aI12
aI14
aI16
aI21
aI23
aI25
aI27
aI28
aa(lp318
I1
aI2
aI4
aI8
aI11
aI13
aI15
aI17
aI21
aI22
aI24
aI26
aI29
aa(lp319
I1
aI2
aI4
aI6
aI8
aI11
aI13
aI15
aI17
aI21
aI22
aI24
aI27
aI29
aa(lp320
I0
aI13
aI16
aI21
aI28
aa(lp321
I0
aI3
aI4
aI7
aI9
aI10
aI13
aI14
aI17
aI21
aI23
aI25
aI26
aI28
aa(lp322
I0
aI3
aI4
aI7
aI9
aI10
aI12
aI14
aI16
aI21
aI23
aI25
aI26
aI28
aa(lp323
I1
aI11
aI13
aI14
aI17
aI21
aI29
aa(lp324
I0
aa(lp325
I0
aI3
aI7
aI9
aI23
aI25
aI27
aa(lp326
I0
aI3
aI5
aI9
aI10
aI12
aI14
aI16
aI21
aI23
aI25
aI26
aI28
aa(lp327
I1
aI2
aI4
aI6
aI8
aI11
aI13
aI15
aI17
aI21
aI22
aI25
aI27
aI29
aa(lp328
I0
aI3
aI4
aI7
aI9
aI23
aI25
aI27
aa(lp329
I0
aI3
aI4
aI7
aI9
aI10
aI12
aI14
aI16
aI21
aI23
aI25
aI26
aI28
aa(lp330
I1
aI2
aI5
aI6
aI8
aI11
aI13
aI15
aI17
aI21
aI22
aI24
aI27
aI29
aa(lp331
I1
aI2
aI4
aI6
aI8
aI11
aI13
aI15
aI17
aI21
aI22
aI24
aI27
aI29
aa(lp332
I0
aI10
aI14
aI16
aI21
aI28
aa(lp333
I0
aI3
aI4
aI7
aI9
aI10
aI12
aI14
aI16
aI21
aI23
aI25
aI26
aI28
aa(lp334
I0
aI3
aI4
aI7
aI9
aI10
aI13
aI14
aI16
aI21
aI23
aI25
aI26
aI28
aa(lp335
I0
aI3
aI4
aI7
aI9
aI10
aI12
aI14
aI16
aI21
aI23
aI25
aI26
aI28
aa(lp336
I1
aI2
aI4
aI6
aI8
aI11
aI13
aI15
aI17
aI21
aI22
aI24
aI27
aI29
aa(lp337
I11
aI13
aI15
aI17
aI21
aa(lp338
I0
aI3
aI4
aI7
aI9
aI23
aI25
aI26
aa(lp339
I0
aI3
aI4
aI7
aI9
aI10
aI12
aI14
aI16
aI21
aI23
aI25
aI26
aI28
aa(lp340
I0
aI3
aI4
aI7
aI9
aI12
aI14
aI16
aI21
aI23
aI25
aI26
aI28
aa(lp341
I1
aI2
aI4
aI6
aI8
aI11
aI13
aI15
aI17
aI21
aI22
aI24
aI26
aI29
aa(lp342
I0
aI3
aI4
aI7
aI9
aI10
aI13
aI14
aI17
aI21
aI23
aI25
aI26
aI28
aa(lp343
I0
aI3
aI5
aI7
aI9
aI10
aI12
aI14
aI16
aI21
aI23
aI25
aI26
aI28
aa(lp344
I1
aI11
aI13
aI15
aI17
aI21
aI28
aa(lp345
I1
aI11
aI13
aI15
aI17
aI21
aI29
aa(lp346
I0
aI3
aI4
aI7
aI9
aI23
aI25
aI26
aa(lp347
I0
aa(lp348
I1
aI11
aI13
aI14
aI17
aI21
aI29
aa(lp349
I0
aI3
aI4
aI7
aI9
aI10
aI13
aI14
aI16
aI21
aI23
aI25
aI26
aI28
aa(lp350
I0
aI3
aI4
aI7
aI9
aI10
aI14
aI17
aI21
aI23
aI25
aI26
aI28
aa(lp351
I1
aI2
aI4
aI6
aI8
aI11
aI13
aI15
aI17
aI21
aI22
aI24
aI26
aI29
aa(lp352
I1
aI2
aI5
aI6
aI8
aI13
aI15
aI17
aI21
aI22
aI24
aI26
aI29
aa(lp353
I0
aI3
aI4
aI7
aI9
aI10
aI12
aI14
aI16
aI21
aI23
aI25
aI26
aI28
aa(lp354
I0
aI3
aI4
aI7
aI9
aI11
aI13
aI14
aI16
aI21
aI23
aI25
aI26
aI28
aa(lp355
I1
aI2
aI4
aI6
aI8
aI11
aI13
aI15
aI17
aI21
aI22
aI24
aI26
aI29
aa(lp356
I1
aI11
aI13
aI15
aI17
aI21
aI29
aa(lp357
I1
aI11
aI13
aI15
aI17
aI21
aI29
aa(lp358
I1
aI2
aI5
aI6
aI8
aI11
aI13
aI15
aI17
aI21
aI22
aI24
aI27
aI29
aa(lp359
I1
aI11
aI13
aI15
aI21
aI29
aa(lp360
I1
aI2
aI5
aI6
aI8
aI11
aI13
aI15
aI20
aI22
aI24
aI27
aI29
aa(lp361
I0
aI3
aI4
aI7
aI9
aI10
aI12
aI14
aI16
aI21
aI23
aI24
aI26
aI28
aa(lp362
I0
aI9
aI10
aI12
aI14
aI16
aI21
aI28
aa(lp363
I0
aI3
aI4
aI7
aI9
aI12
aI16
aI23
aI25
aI26
aI28
aa(lp364
I1
aa(lp365
I1
aI2
aI5
aI6
aI8
aI11
aI13
aI15
aI17
aI20
aI22
aI24
aI27
aI29
aa(lp366
I0
aI3
aI4
aI7
aI9
aI10
aI12
aI14
aI16
aI21
aI23
aI25
aI26
aI28
aa(lp367
I1
aI2
aI5
aI6
aI8
aI11
aI13
aI15
aI17
aI21
aI22
aI24
aI26
aI29
aa(lp368
I1
aI13
aI17
aI21
aI29
aa(lp369
I1
aI2
aI4
aI7
aI8
aI11
aI13
aI15
aI17
aI21
aI22
aI25
aI29
aa(lp370
I0
aI3
aI4
aI7
aI9
aI10
aI12
aI14
aI16
aI21
aI23
aI25
aI26
aI28
aa(lp371
I0
aI3
aI4
aI7
aI9
aI10
aI12
aI14
aI16
aI21
aI23
aI25
aI27
aI28
aa(lp372
I1
aI11
aI13
aI15
aI17
aI21
aa(lp373
I1
aI2
aI4
aI8
aI11
aI13
aI15
aI17
aI21
aI22
aI24
aI27
aI29
aa(lp374
I0
aI3
aI4
aI7
aI9
aI23
aI25
aI26
aa(lp375
I1
aa(lp376
I0
aI13
aI15
aI16
aI28
aa(lp377
I1
aI11
aI13
aI15
aI17
aI21
aI28
aa(lp378
I1
aI2
aI5
aI6
aI8
aI11
aI13
aI15
aI17
aI21
aI22
aI24
aI27
aI29
aa(lp379
I1
aI2
aI4
aI6
aI8
aI11
aI13
aI15
aI17
aI21
aI22
aI24
aI26
aI29
aa(lp380
I0
aI10
aI12
aI14
aI16
aI21
aI28
aa(lp381
I1
aa(lp382
I1
aI2
aI4
aI6
aI8
aI11
aI13
aI15
aI17
aI21
aI22
aI24
aI27
aI29
aa(lp383
I0
aI3
aI4
aI7
aI9
aI23
aI25
aI26
aa(lp384
I1
aI2
aI5
aI6
aI8
aI11
aI13
aI15
aI17
aI21
aI22
aI24
aI26
aI29
aa(lp385
I1
aI2
aI4
aI6
aI8
aI11
aI13
aI15
aI17
aI21
aI22
aI25
aI27
aI29
aa(lp386
I1
aI11
aI13
aI15
aI17
aI21
aI29
aa(lp387
I0
aI3
aI4
aI7
aI9
aI10
aI13
aI14
aI16
aI21
aI23
aI25
aI26
aI28
aa(lp388
I0
aI3
aI4
aI7
aI9
aI10
aI13
aI14
aI16
aI21
aI23
aI25
aI26
aI28
aa(lp389
I1
aI2
aI5
aI6
aI8
aI11
aI13
aI15
aI17
aI22
aI24
aI27
aI29
aa(lp390
I1
aI2
aI5
aI6
aI8
aI11
aI13
aI15
aI17
aI21
aI22
aI24
aI27
aI29
aa(lp391
I0
aI3
aI4
aI7
aI9
aI23
aI25
aI26
aa(lp392
I1
aI2
aI4
aI6
aI8
aI11
aI13
aI15
aI17
aI21
aI22
aI25
aI27
aI29
aa(lp393
I1
aI2
aI4
aI6
aI9
aI11
aI13
aI14
aI16
aI21
aI23
aI25
aI26
aI29
aa(lp394
I0
aa(lp395
I0
aI3
aI4
aI7
aI9
aI10
aI12
aI14
aI16
aI21
aI23
aI25
aI27
aI28
aa(lp396
I0
aI3
aI4
aI7
aI9
aI10
aI12
aI14
aI16
aI21
aI23
aI25
aI26
aI28
aa(lp397
I1
aI2
aI4
aI6
aI8
aI11
aI13
aI15
aI17
aI21
aI22
aI24
aI27
aI29
aa(lp398
I1
aI2
aI5
aI6
aI8
aI11
aI13
aI15
aI17
aI21
aI22
aI24
aI26
aI29
aa(lp399
I1
aI2
aI4
aI6
aI8
aI11
aI13
aI15
aI17
aI21
aI22
aI25
aI27
aI29
aa(lp400
I1
aI2
aI5
aI6
aI8
aI11
aI15
aI17
aI20
aI22
aI24
aI26
aI29
aa(lp401
I1
aI2
aI4
aI6
aI8
aI11
aI13
aI14
aI17
aI22
aI24
aI26
aI29
aa(lp402
I0
aI3
aI4
aI7
aI9
aI23
aI25
aI26
aa(lp403
I1
aI11
aI13
aI15
aI17
aI21
aI29
aa(lp404
I1
aI2
aI5
aI7
aI8
aI11
aI13
aI15
aI17
aI21
aI22
aI24
aI27
aI29
aa(lp405
I1
aI2
aI5
aI6
aI8
aI11
aI13
aI15
aI17
aI22
aI24
aI27
aI29
aa(lp406
I0
aI3
aI4
aI7
aI9
aI10
aI12
aI14
aI16
aI21
aI23
aI25
aI26
aI28
aa(lp407
I0
aI3
aI4
aI7
aI9
aI10
aI12
aI14
aI16
aI21
aI23
aI25
aI26
aI28
aa(lp408
I0
aI2
aI4
aI7
aI9
aI10
aI13
aI14
aI16
aI21
aI23
aI25
aI27
aI28
aa(lp409
I1
aI11
aI13
aI15
aI17
aI21
aI29
aa(lp410
I1
aI2
aI5
aI6
aI8
aI11
aI13
aI15
aI17
aI21
aI22
aI25
aI27
aI29
aa(lp411
I0
aa(lp412
I0
aI3
aI4
aI7
aI9
aI10
aI13
aI14
aI16
aI21
aI23
aI25
aI26
aI28
aa(lp413
I0
aa(lp414
I0
aI3
aI4
aI7
aI9
aI10
aI12
aI14
aI16
aI21
aI23
aI25
aI26
aI28
aa(lp415
I0
aI3
aI4
aI7
aI9
aI10
aI12
aI14
aI16
aI21
aI23
aI25
aI26
aI28
aa(lp416
I0
aI3
aI4
aI7
aI9
aI23
aI25
aI26
aa(lp417
I1
aI2
aI4
aI6
aI8
aI11
aI13
aI15
aI17
aI21
aI22
aI24
aI26
aI29
aa(lp418
I1
aI2
aI4
aI6
aI8
aI11
aI15
aI17
aI21
aI22
aI25
aI27
aI29
aa(lp419
I0
aI3
aI4
aI7
aI9
aI10
aI12
aI14
aI16
aI21
aI23
aI25
aI26
aI28
aa(lp420
I1
aI6
aI8
aI11
aI13
aI15
aI17
aI21
aI22
aI24
aI27
aI29
aa(lp421
I1
aI2
aI4
aI6
aI8
aI11
aI13
aI15
aI17
aI21
aI22
aI24
aI26
aI29
aa(lp422
I2
aI4
aI6
aI8
aI11
aI13
aI15
aI17
aI21
aI24
aI29
aa(lp423
I0
aa(lp424
I1
aI11
aI13
aI15
aI17
aI21
aI29
aa(lp425
I0
aI3
aI4
aI7
aI9
aI23
aI25
aI26
aa(lp426
I0
aI3
aI4
aI9
aI10
aI12
aI14
aI16
aI21
aI23
aI25
aI26
aa(lp427
I1
aI11
aI13
aI15
aI17
aI21
aI29
aa(lp428
I1
aI2
aI4
aI6
aI8
aI11
aI13
aI14
aI17
aI21
aI22
aI24
aI26
aI29
aa(lp429
I0
aI3
aI4
aI7
aI9
aI23
aI25
aI26
aa(lp430
I0
aI3
aI4
aI7
aI9
aI10
aI12
aI14
aI16
aI21
aI23
aI25
aI26
aI28
aa(lp431
I1
aI2
aI5
aI7
aI8
aI11
aI13
aI15
aI17
aI21
aI22
aI24
aI26
aI29
aa(lp432
I0
aI3
aI4
aI7
aI9
aI12
aI14
aI16
aI21
aI23
aI25
aI26
aI28
aa(lp433
I0
aI3
aI4
aI7
aI9
aI10
aI12
aI14
aI16
aI21
aI23
aI25
aI26
aI28
aa(lp434
I0
aI3
aI4
aI7
aI9
aI23
aI25
aI26
aa(lp435
I0
aI3
aI4
aI7
aI9
aI11
aI12
aI14
aI16
aI21
aI23
aI25
aI26
aI28
aa(lp436
I1
aa(lp437
I11
aI13
aI14
aI17
aI21
aI28
aa(lp438
I1
aI2
aI4
aI7
aI9
aI11
aI13
aI14
aI17
aI21
aI23
aI25
aI26
aI28
aa(lp439
I1
aI2
aI5
aI6
aI8
aI11
aI13
aI15
aI17
aI21
aI22
aI24
aI26
aI29
aa(lp440
I1
aI2
aI5
aI6
aI8
aI11
aI13
aI15
aI17
aI21
aI22
aI24
aI27
aI29
aa(lp441
I0
aI10
aI12
aI14
aI16
aa(lp442
I1
aI2
aI5
aI6
aI8
aI11
aI13
aI15
aI17
aI20
aI22
aI24
aI27
aI29
aa(lp443
I1
aI13
aI17
aI28
aa(lp444
I0
aI3
aI4
aI7
aI9
aI10
aI13
aI14
aI16
aI21
aI23
aI24
aI26
aI28
aa(lp445
I1
aI2
aI5
aI6
aI8
aI11
aI13
aI15
aI17
aI21
aI22
aI24
aI27
aI29
aa(lp446
I0
aI3
aI4
aI7
aI9
aI10
aI13
aI14
aI17
aI21
aI23
aI25
aI27
aI28
aa(lp447
I3
aI4
aI7
aI9
aI23
aI25
aI27
aa(lp448
I1
aI11
aI13
aI15
aI16
aI21
aI29
aa(lp449
I1
aI2
aI5
aI6
aI8
aI11
aI13
aI15
aI17
aI20
aI22
aI24
aI27
aI29
aa(lp450
I0
aI3
aI5
aI7
aI9
aI10
aI12
aI14
aI16
aI21
aI23
aI25
aI27
aI28
aa(lp451
I1
aI2
aI4
aI6
aI8
aI11
aI13
aI15
aI17
aI21
aI22
aI24
aI26
aI29
aa(lp452
I0
aa(lp453
I0
aI3
aI4
aI7
aI9
aI10
aI12
aI14
aI16
aI21
aI23
aI24
aI26
aI28
aa(lp454
I0
aI3
aI4
aI7
aI9
aI23
aI25
aI26
aa(lp455
I1
aI11
aI13
aI15
aI16
aI21
aI29
aa(lp456
I1
aI2
aI5
aI6
aI8
aI13
aI15
aI17
aI21
aI22
aI24
aI27
aI29
aa(lp457
I0
aa(lp458
I1
aI11
aI13
aI15
aI17
aI21
aI29
aa(lp459
I1
aI2
aI5
aI8
aI11
aI13
aI15
aI17
aI21
aI22
aI24
aI27
aI29
aa(lp460
I1
aI2
aI5
aI7
aI8
aI11
aI13
aI15
aI17
aI21
aI22
aI24
aI26
aI29
aa(lp461
I0
aa(lp462
I1
aa(lp463
I1
aI6
aI8
aI11
aI13
aI15
aI17
aI21
aI22
aI24
aI27
aI29
aa(lp464
I0
aI9
aI11
aI13
aI14
aI16
aI21
aI28
aa(lp465
I0
aI10
aI14
aI16
aI21
aa(lp466
I1
aI6
aI8
aI11
aI13
aI15
aI17
aI21
aI22
aI24
aI26
aa(lp467
I0
aI3
aI4
aI7
aI9
aI23
aI25
aI26
aa(lp468
I0
aI3
aI4
aI7
aI9
aI16
aI21
aI23
aI24
aI26
aI28
aa(lp469
I0
aI3
aI4
aI7
aI9
aI10
aI13
aI14
aI16
aI21
aI23
aI25
aI26
aI28
aa(lp470
I0
aI2
aI4
aI7
aI9
aI23
aI25
aI26
aa(lp471
I0
aI3
aI4
aI7
aI9
aI23
aI25
aI26
aa(lp472
I0
aI3
aI4
aI7
aI9
aI23
aI25
aI26
aa(lp473
I0
aI3
aI4
aI7
aI9
aI10
aI12
aI14
aI16
aI21
aI23
aI24
aI26
aI28
aa(lp474
I1
aI2
aI4
aI6
aI8
aI11
aI13
aI15
aI17
aI21
aI22
aI24
aI27
aI29
aa(lp475
I0
aI3
aI4
aI7
aI9
aI10
aI12
aI14
aI16
aI21
aI23
aI25
aI26
aI28
aa(lp476
I0
aI3
aI4
aI7
aI9
aI10
aI13
aI14
aI17
aI21
aI22
aI25
aI26
aI28
aa(lp477
I0
aI3
aI4
aI7
aI9
aI11
aI13
aI15
aI16
aI21
aI22
aI25
aI26
aI28
aa(lp478
I1
aI2
aI4
aI6
aI8
aI11
aI13
aI15
aI17
aI21
aI22
aI24
aI26
aI29
aa(lp479
I0
aI3
aI4
aI7
aI9
aI23
aI25
aI26
aa(lp480
I0
aa(lp481
I0
aI3
aI4
aI7
aI9
aI23
aI25
aI26
aa(lp482
I0
aI10
aI13
aI14
aI16
aI21
aI28
aa(lp483
I0
aI3
aI4
aI7
aI9
aI10
aI12
aI14
aI16
aI21
aI23
aI25
aI26
aI28
aa(lp484
I0
aI3
aI4
aI7
aI9
aI10
aI13
aI14
aI16
aI21
aI23
aI25
aI26
aI28
aa(lp485
I0
aI3
aI4
aI7
aI9
aI23
aI25
aI26
aa(lp486
I1
aI2
aI5
aI6
aI8
aI11
aI13
aI15
aI17
aI20
aI22
aI24
aI27
aI29
aa(lp487
I1
aI2
aI4
aI6
aI8
aI11
aI13
aI14
aI17
aI21
aI23
aI24
aI26
aI28
aa(lp488
I0
aI10
aI14
aI16
aI21
aI28
aa(lp489
I1
aI2
aI5
aI6
aI8
aI11
aI13
aI15
aI17
aI21
aI22
aI24
aI27
aI29
aa(lp490
I1
aI2
aI5
aI6
aI8
aI11
aI13
aI15
aI17
aI21
aI22
aI24
aI27
aI29
aa(lp491
I0
aI3
aI4
aI7
aI9
aI23
aI25
aI26
aa(lp492
I1
aI11
aI13
aI15
aI17
aI21
aa(lp493
I0
aI3
aI4
aI7
aI9
aI10
aI12
aI14
aI16
aI21
aI23
aI25
aI26
aI28
aa(lp494
I0
aI3
aI4
aI7
aI9
aI10
aI13
aI14
aI17
aI21
aI23
aI25
aI26
aI28
aa(lp495
I0
aI11
aI13
aI15
aI17
aI21
aI28
aa(lp496
I0
aI3
aI4
aI7
aI9
aI23
aI25
aI26
aa(lp497
I0
aI3
aI4
aI7
aI9
aI10
aI14
aI16
aI21
aI23
aI25
aI26
aI28
aa(lp498
I1
aI2
aI4
aI6
aI8
aI11
aI13
aI15
aI17
aI21
aI22
aI24
aI27
aI29
aa(lp499
I1
aI2
aI5
aI6
aI8
aI11
aI13
aI15
aI17
aI21
aI24
aI27
aI29
aa(lp500
I1
aI2
aI5
aI6
aI8
aI11
aI13
aI15
aI17
aI21
aI22
aI24
aI27
aa(lp501
I0
aI7
aI9
aI25
aI26
aa(lp502
I1
aI15
aI17
aI21
aa(lp503
I0
aI3
aI4
aI7
aI9
aI23
aI25
aI26
aa(lp504
I0
aI3
aI5
aI7
aI9
aI10
aI12
aI14
aI16
aI21
aI23
aI25
aI26
aI28
aa(lp505
I0
aa(lp506
I1
aI2
aI4
aI6
aI8
aI11
aI13
aI15
aI17
aI21
aI22
aI24
aI26
aI29
aa(lp507
I0
aI3
aI4
aI7
aI9
aI10
aI13
aI14
aI16
aI21
aI23
aI25
aI26
aa(lp508
I1
aI2
aI5
aI6
aI8
aI11
aI13
aI15
aI17
aI21
aI22
aI24
aI26
aI29
aa(lp509
I1
aI11
aI13
aI14
aI17
aI21
aI29
aa(lp510
I1
aI2
aI5
aI6
aI8
aI22
aI24
aI27
aa(lp511
I0
aI3
aI4
aI7
aI9
aI10
aI13
aI14
aI16
aI21
aI23
aI25
aI26
aI28
aa(lp512
I1
aI2
aI4
aI6
aI8
aI11
aI13
aI15
aI17
aI21
aI22
aI24
aI27
aI29
aa(lp513
I0
aI3
aI4
aI7
aI9
aI10
aI12
aI14
aI16
aI21
aI23
aI25
aI26
aI28
aa(lp514
I1
aI2
aI5
aI8
aI11
aI13
aI15
aI17
aI21
aI22
aI24
aI27
aI29
aa(lp515
I0
aI3
aI4
aI7
aI9
aI10
aI13
aI14
aI17
aI21
aI23
aI25
aI26
aI28
aa(lp516
I1
aI2
aI5
aI7
aI8
aI11
aI13
aI15
aI17
aI21
aI22
aI24
aI27
aI29
aa(lp517
I0
aI3
aI4
aI7
aI9
aI10
aI12
aI14
aI16
aI21
aI23
aI25
aI26
aI28
aa(lp518
I0
aI7
aI9
aI10
aI12
aI14
aI16
aI21
aI23
aI25
aI26
aI28
aa(lp519
I0
aI3
aI4
aI7
aI9
aI10
aI12
aI14
aI16
aI21
aI23
aI25
aI26
aI28
aa(lp520
I0
aI3
aI4
aI7
aI9
aI10
aI13
aI14
aI16
aI21
aI23
aI25
aI26
aI28
aa(lp521
I0
aI3
aI4
aI7
aI9
aI10
aI12
aI14
aI16
aI21
aI23
aI25
aI27
aI28
aa(lp522
I0
aI3
aI4
aI7
aI9
aI23
aI25
aI26
aa(lp523
I1
aI11
aI13
aI15
aI17
aI21
aa(lp524
I1
aI11
aI13
aI15
aI16
aI21
aI29
aa(lp525
I1
aI2
aI4
aI6
aI8
aI11
aI13
aI15
aI17
aI21
aI22
aI24
aI26
aI29
aa(lp526
I1
aI2
aI5
aI6
aI8
aI11
aI13
aI15
aI17
aI21
aI22
aI24
aI27
aI29
aa(lp527
I1
aa(lp528
I0
aI3
aI4
aI7
aI9
aI23
aI25
aI26
aa(lp529
I1
aI2
aI4
aI6
aI8
aI11
aI13
aI14
aI17
aI21
aI23
aI25
aI26
aI29
aa(lp530
I0
aI3
aI4
aI7
aI9
aI11
aI13
aI14
aI16
aI21
aI23
aI24
aI26
aI28
aa(lp531
I0
aI3
aI4
aI7
aI9
aI23
aI25
aI26
aa(lp532
I0
aI3
aI4
aI7
aI9
aI23
aI25
aI26
aa(lp533
I1
aa(lp534
I1
aI2
aI4
aI6
aI8
aI11
aI13
aI15
aI17
aI21
aI22
aI24
aI27
aI29
aa(lp535
I0
aI3
aI4
aI7
aI9
aI23
aI25
aI27
aa(lp536
I1
aI11
aI13
aI15
aI17
aI21
aI29
aa(lp537
I0
aI3
aI4
aI7
aI9
aI10
aI12
aI14
aI17
aI21
aI23
aI25
aI27
aI28
aa(lp538
I1
aI2
aI4
aI6
aI8
aI11
aI13
aI15
aI17
aI21
aI22
aI25
aI27
aI29
aa(lp539
I0
aI3
aI4
aI7
aI9
aI23
aI25
aI26
aa(lp540
I0
aI11
aI13
aI14
aI17
aI21
aI28
aa(lp541
I1
aI11
aI13
aI15
aI17
aI21
aI29
aa(lp542
I0
aI3
aI4
aI7
aI9
aI23
aI25
aI26
aa(lp543
I0
aa(lp544
I1
aI2
aI4
aI6
aI8
aI11
aI13
aI15
aI17
aI21
aI22
aI25
aI26
aI28
aa(lp545
I0
aI3
aI4
aI7
aI9
aI23
aI25
aI26
aa(lp546
I0
aa(lp547
I1
aI2
aI4
aI6
aI8
aI11
aI13
aI15
aI17
aI21
aI23
aI24
aI26
aI29
aa(lp548
I1
aI2
aI4
aI6
aI8
aI11
aI13
aI15
aI17
aI21
aI22
aI24
aI27
aI29
aa(lp549
I0
aI3
aI4
aI7
aI9
aI10
aI12
aI14
aI16
aI21
aI23
aI25
aI26
aI28
aa(lp550
I1
aI11
aI14
aI16
aa(lp551
I0
aI3
aI4
aI7
aI9
aI23
aI25
aI26
aa(lp552
I1
aI2
aI4
aI6
aI8
aI11
aI13
aI15
aI17
aI21
aI22
aI24
aI27
aI29
aa(lp553
I1
aI2
aI4
aI6
aI8
aI11
aI13
aI15
aI17
aI21
aI22
aI24
aI26
aI29
aa(lp554
I0
aI2
aI4
aI7
aI9
aI11
aI13
aI14
aI17
aI21
aI23
aI25
aI27
aI28
aa(lp555
I1
aI2
aI4
aI6
aI8
aI11
aI13
aI15
aI17
aI21
aI22
aI25
aI27
aI29
aa(lp556
I1
aa(lp557
I0
aI3
aI4
aI7
aI9
aI10
aI14
aI16
aI21
aI23
aI25
aI27
aI28
aa(lp558
I1
aI11
aI13
aI14
aI17
aI21
aa(lp559
I0
aI3
aI4
aI7
aI9
aI10
aI13
aI14
aI16
aI21
aI23
aI25
aI27
aI28
aa(lp560
I1
aI11
aI13
aI15
aI17
aI21
aI29
aa(lp561
I1
aI11
aI13
aI15
aI17
aI21
aI28
aa(lp562
I0
aI3
aI4
aI7
aI9
aI23
aI25
aI26
aa(lp563
I1
aI11
aI13
aI15
aI17
aI21
aI29
aa(lp564
I1
aI2
aI5
aI6
aI8
aI22
aI24
aI27
aa(lp565
I0
aI3
aI4
aI7
aI9
aI10
aI12
aI14
aI21
aI23
aI25
aI26
aI28
aa(lp566
I0
aI10
aI14
aI16
aI21
aI28
aa.